target datalayout = "e-m:e-p270:32:32-p271:32:32-p272:64:64-i64:64-i128:128-f80:128-n8:16:32:64-S128"
target triple = "x86_64-pc-linux-gnu"

%struct.H4 = type { ptr, ptr }

; Function Attrs: alwaysinline nounwind uwtable
define internal i64 @BrotliUnalignedRead64(ptr noundef %0) #3 {
  %2 = alloca ptr, align 8
  %3 = alloca i64, align 8
  store ptr %0, ptr %2, align 8, !tbaa !48
  call void @llvm.lifetime.start.p0(i64 8, ptr %3) #10
  %4 = load ptr, ptr %2, align 8, !tbaa !48
  call void @llvm.memcpy.p0.p0.i64(ptr align 8 %3, ptr align 1 %4, i64 8, i1 false)
  %5 = load i64, ptr %3, align 8, !tbaa !75
  call void @llvm.lifetime.end.p0(i64 8, ptr %3) #10
  ret i64 %5
}

; Function Attrs: nounwind uwtable
define internal i32 @HashBytesH4(ptr noundef %0) #0 {
  %2 = alloca ptr, align 8
  %3 = alloca i64, align 8
  store ptr %0, ptr %2, align 8, !tbaa !76
  call void @llvm.lifetime.start.p0(i64 8, ptr %3) #10
  %4 = load ptr, ptr %2, align 8, !tbaa !76
  %5 = call i64 @BrotliUnalignedRead64(ptr noundef %4)
  %6 = shl i64 %5, 24
  %7 = mul i64 %6, 2297779722762296275
  store i64 %7, ptr %3, align 8, !tbaa !75
  %8 = load i64, ptr %3, align 8, !tbaa !75
  %9 = lshr i64 %8, 47
  %10 = trunc i64 %9 to i32
  call void @llvm.lifetime.end.p0(i64 8, ptr %3) #10
  ret i32 %10
}

; Function Attrs: nounwind uwtable
define internal void @PrepareH4(ptr noalias noundef %0, i32 noundef %1, i64 noundef %2, ptr noalias noundef %3) #0 {
  %5 = alloca ptr, align 8
  %6 = alloca i32, align 4
  %7 = alloca i64, align 8
  %8 = alloca ptr, align 8
  %9 = alloca ptr, align 8
  %10 = alloca i64, align 8
  %11 = alloca i64, align 8
  %12 = alloca i32, align 4
  %13 = alloca i32, align 4
  store ptr %0, ptr %5, align 8, !tbaa !200
  store i32 %1, ptr %6, align 4, !tbaa !8
  store i64 %2, ptr %7, align 8, !tbaa !75
  store ptr %3, ptr %8, align 8, !tbaa !76
  call void @llvm.lifetime.start.p0(i64 8, ptr %9) #10
  %14 = load ptr, ptr %5, align 8, !tbaa !200
  %15 = getelementptr inbounds nuw %struct.H4, ptr %14, i32 0, i32 1
  %16 = load ptr, ptr %15, align 8, !tbaa !237
  store ptr %16, ptr %9, align 8, !tbaa !88
  call void @llvm.lifetime.start.p0(i64 8, ptr %10) #10
  store i64 4096, ptr %10, align 8, !tbaa !75
  %17 = load i32, ptr %6, align 4, !tbaa !8
  %18 = icmp ne i32 %17, 0
  br i1 %18, label %19, label %53

19:                                               ; preds = %4
  %20 = load i64, ptr %7, align 8, !tbaa !75
  %21 = load i64, ptr %10, align 8, !tbaa !75
  %22 = icmp ule i64 %20, %21
  br i1 %22, label %23, label %53

23:                                               ; preds = %19
  call void @llvm.lifetime.start.p0(i64 8, ptr %11) #10
  store i64 0, ptr %11, align 8, !tbaa !75
  br label %24

24:                                               ; preds = %49, %23
  %25 = load i64, ptr %11, align 8, !tbaa !75
  %26 = load i64, ptr %7, align 8, !tbaa !75
  %27 = icmp ult i64 %25, %26
  br i1 %27, label %28, label %52

28:                                               ; preds = %24
  call void @llvm.lifetime.start.p0(i64 4, ptr %12) #10
  %29 = load ptr, ptr %8, align 8, !tbaa !76
  %30 = load i64, ptr %11, align 8, !tbaa !75
  %31 = getelementptr inbounds nuw i8, ptr %29, i64 %30
  %32 = call i32 @HashBytesH4(ptr noundef %31)
  store i32 %32, ptr %12, align 4, !tbaa !8
  call void @llvm.lifetime.start.p0(i64 4, ptr %13) #10
  store i32 0, ptr %13, align 4, !tbaa !8
  br label %33

33:                                               ; preds = %45, %28
  %34 = load i32, ptr %13, align 4, !tbaa !8
  %35 = icmp ult i32 %34, 4
  br i1 %35, label %36, label %48

36:                                               ; preds = %33
  %37 = load ptr, ptr %9, align 8, !tbaa !88
  %38 = load i32, ptr %12, align 4, !tbaa !8
  %39 = load i32, ptr %13, align 4, !tbaa !8
  %40 = shl i32 %39, 3
  %41 = add i32 %38, %40
  %42 = and i32 %41, 131071
  %43 = zext i32 %42 to i64
  %44 = getelementptr inbounds nuw i32, ptr %37, i64 %43
  store i32 0, ptr %44, align 4, !tbaa !8
  br label %45

45:                                               ; preds = %36
  %46 = load i32, ptr %13, align 4, !tbaa !8
  %47 = add i32 %46, 1
  store i32 %47, ptr %13, align 4, !tbaa !8
  br label %33, !llvm.loop !316

48:                                               ; preds = %33
  call void @llvm.lifetime.end.p0(i64 4, ptr %13) #10
  call void @llvm.lifetime.end.p0(i64 4, ptr %12) #10
  br label %49

49:                                               ; preds = %48
  %50 = load i64, ptr %11, align 8, !tbaa !75
  %51 = add i64 %50, 1
  store i64 %51, ptr %11, align 8, !tbaa !75
  br label %24, !llvm.loop !317

52:                                               ; preds = %24
  call void @llvm.lifetime.end.p0(i64 8, ptr %11) #10
  br label %55

53:                                               ; preds = %19, %4
  %54 = load ptr, ptr %9, align 8, !tbaa !88
  call void @llvm.memset.p0.i64(ptr align 4 %54, i8 0, i64 524288, i1 false)
  br label %55

55:                                               ; preds = %53, %52
  call void @llvm.lifetime.end.p0(i64 8, ptr %10) #10
  call void @llvm.lifetime.end.p0(i64 8, ptr %9) #10
  ret void
}