; Function Attrs: nofree norecurse nosync nounwind memory(argmem: readwrite) uwtable
define internal fastcc void @PrepareH4(ptr writeonly captures(none) %.8.val, i32 noundef range(i32 0, 2) %0, i64 noundef range(i64 0, 4294967296) %1, ptr noalias noundef readonly captures(none) %2) unnamed_addr #11 {
  %.not = icmp ne i32 %0, 0
  %4 = icmp samesign ult i64 %1, 4097
  %or.cond = select i1 %.not, i1 %4, i1 false
  br i1 %or.cond, label %.preheader, label %18

.preheader:                                       ; preds = %3
  %.not3 = icmp eq i64 %1, 0
  br i1 %.not3, label %.loopexit, label %.lr.ph

.lr.ph:                                           ; preds = %.preheader, %16
  %.0142 = phi i64 [ %17, %16 ], [ 0, %.preheader ]
  %5 = getelementptr inbounds nuw i8, ptr %2, i64 %.0142
  %.val = load i64, ptr %5, align 1
  %6 = mul i64 %.val, 8922571613522624512
  %7 = lshr i64 %6, 47
  %8 = trunc nuw nsw i64 %7 to i32
  br label %9

9:                                                ; preds = %.lr.ph, %9
  %.01 = phi i32 [ 0, %.lr.ph ], [ %15, %9 ]
  %10 = shl nuw nsw i32 %.01, 3
  %11 = add nuw nsw i32 %10, %8
  %12 = and i32 %11, 131071
  %13 = zext nneg i32 %12 to i64
  %14 = getelementptr inbounds nuw i32, ptr %.8.val, i64 %13
  store i32 0, ptr %14, align 4, !tbaa !59
  %15 = add nuw nsw i32 %.01, 1
  %exitcond.not = icmp eq i32 %15, 4
  br i1 %exitcond.not, label %16, label %9, !llvm.loop !661

16:                                               ; preds = %9
  %17 = add nuw nsw i64 %.0142, 1
  %exitcond4.not = icmp eq i64 %17, %1
  br i1 %exitcond4.not, label %.loopexit, label %.lr.ph, !llvm.loop !662

18:                                               ; preds = %3
  tail call void @llvm.memset.p0.i64(ptr noundef nonnull align 4 dereferenceable(524288) %.8.val, i8 0, i64 524288, i1 false)
  br label %.loopexit

.loopexit:                                        ; preds = %16, %.preheader, %18
  ret void
}